target datalayout = "e-m:e-p270:32:32-p271:32:32-p272:64:64-i64:64-i128:128-f80:128-n8:16:32:64-S128"
target triple = "x86_64-pc-linux-gnu"

%struct.knl_distances_summary = type { i32, [4 x %struct.knl_distances_value] }
%struct.knl_distances_value = type { i32, i64 }

@.str.396 = private unnamed_addr constant [62 x i8] c"Trying to identify 4 KNL NUMA nodes in SNC-2 cluster mode...\0A\00", align 1
@.str.397 = private unnamed_addr constant [23 x i8] c"  DDR#0 is NUMAnode#0\0A\00", align 1
@.str.398 = private unnamed_addr constant [24 x i8] c"  DDR#1 is NUMAnode#%u\0A\00", align 1
@.str.399 = private unnamed_addr constant [27 x i8] c"  MCDRAM#0 is NUMAnode#%u\0A\00", align 1
@.str.400 = private unnamed_addr constant [27 x i8] c"  MCDRAM#1 is NUMAnode#%u\0A\00", align 1

; Function Attrs: inlinehint nounwind uwtable
define internal void @hwloc_debug(ptr noundef %0, ...) #1 {
  %2 = alloca ptr, align 8
  store ptr %0, ptr %2, align 8, !tbaa !3
  ret void
}

; Function Attrs: nounwind uwtable
define internal i32 @hwloc_linux_knl_identify_4nodes(ptr noundef %0, ptr noundef %1, ptr noundef %2, ptr noundef %3) #0 {
  %5 = alloca i32, align 4
  %6 = alloca ptr, align 8
  %7 = alloca ptr, align 8
  %8 = alloca ptr, align 8
  %9 = alloca ptr, align 8
  %10 = alloca i64, align 8
  %11 = alloca i32, align 4
  %12 = alloca i32, align 4
  store ptr %0, ptr %6, align 8, !tbaa !14
  store ptr %1, ptr %7, align 8, !tbaa !336
  store ptr %2, ptr %8, align 8, !tbaa !91
  store ptr %3, ptr %9, align 8, !tbaa !91
  call void @llvm.lifetime.start.p0(i64 8, ptr %10) #14
  call void @llvm.lifetime.start.p0(i64 4, ptr %11) #14
  call void (ptr, ...) @hwloc_debug(ptr noundef @.str.396)
  %13 = load ptr, ptr %7, align 8, !tbaa !336
  %14 = getelementptr inbounds nuw %struct.knl_distances_summary, ptr %13, i32 0, i32 0
  %15 = load i32, ptr %14, align 8, !tbaa !338
  %16 = icmp ne i32 %15, 4
  br i1 %16, label %45, label %17

17:                                               ; preds = %4
  %18 = load ptr, ptr %7, align 8, !tbaa !336
  %19 = getelementptr inbounds nuw %struct.knl_distances_summary, ptr %18, i32 0, i32 1
  %20 = getelementptr inbounds [4 x %struct.knl_distances_value], ptr %19, i64 0, i64 0
  %21 = getelementptr inbounds nuw %struct.knl_distances_value, ptr %20, i32 0, i32 0
  %22 = load i32, ptr %21, align 8, !tbaa !342
  %23 = icmp ne i32 %22, 1
  br i1 %23, label %45, label %24

24:                                               ; preds = %17
  %25 = load ptr, ptr %7, align 8, !tbaa !336
  %26 = getelementptr inbounds nuw %struct.knl_distances_summary, ptr %25, i32 0, i32 1
  %27 = getelementptr inbounds [4 x %struct.knl_distances_value], ptr %26, i64 0, i64 1
  %28 = getelementptr inbounds nuw %struct.knl_distances_value, ptr %27, i32 0, i32 0
  %29 = load i32, ptr %28, align 8, !tbaa !342
  %30 = icmp ne i32 %29, 2
  br i1 %30, label %45, label %31

31:                                               ; preds = %24
  %32 = load ptr, ptr %7, align 8, !tbaa !336
  %33 = getelementptr inbounds nuw %struct.knl_distances_summary, ptr %32, i32 0, i32 1
  %34 = getelementptr inbounds [4 x %struct.knl_distances_value], ptr %33, i64 0, i64 2
  %35 = getelementptr inbounds nuw %struct.knl_distances_value, ptr %34, i32 0, i32 0
  %36 = load i32, ptr %35, align 8, !tbaa !342
  %37 = icmp ne i32 %36, 3
  br i1 %37, label %45, label %38

38:                                               ; preds = %31
  %39 = load ptr, ptr %7, align 8, !tbaa !336
  %40 = getelementptr inbounds nuw %struct.knl_distances_summary, ptr %39, i32 0, i32 1
  %41 = getelementptr inbounds [4 x %struct.knl_distances_value], ptr %40, i64 0, i64 3
  %42 = getelementptr inbounds nuw %struct.knl_distances_value, ptr %41, i32 0, i32 0
  %43 = load i32, ptr %42, align 8, !tbaa !342
  %44 = icmp ne i32 %43, 4
  br i1 %44, label %45, label %46

45:                                               ; preds = %38, %31, %24, %17, %4
  store i32 -1, ptr %5, align 4
  store i32 1, ptr %12, align 4
  br label %143

46:                                               ; preds = %38
  %47 = load ptr, ptr %8, align 8, !tbaa !91
  %48 = getelementptr inbounds i32, ptr %47, i64 0
  store i32 0, ptr %48, align 4, !tbaa !10
  %49 = load ptr, ptr %7, align 8, !tbaa !336
  %50 = getelementptr inbounds nuw %struct.knl_distances_summary, ptr %49, i32 0, i32 1
  %51 = getelementptr inbounds [4 x %struct.knl_distances_value], ptr %50, i64 0, i64 0
  %52 = getelementptr inbounds nuw %struct.knl_distances_value, ptr %51, i32 0, i32 1
  %53 = load i64, ptr %52, align 8, !tbaa !340
  store i64 %53, ptr %10, align 8, !tbaa !12
  %54 = load ptr, ptr %8, align 8, !tbaa !91
  %55 = getelementptr inbounds i32, ptr %54, i64 1
  store i32 0, ptr %55, align 4, !tbaa !10
  call void (ptr, ...) @hwloc_debug(ptr noundef @.str.397)
  store i32 0, ptr %11, align 4, !tbaa !10
  br label %56

56:                                               ; preds = %73, %46
  %57 = load i32, ptr %11, align 4, !tbaa !10
  %58 = icmp ult i32 %57, 4
  br i1 %58, label %59, label %76

59:                                               ; preds = %56
  %60 = load ptr, ptr %6, align 8, !tbaa !14
  %61 = load i32, ptr %11, align 4, !tbaa !10
  %62 = zext i32 %61 to i64
  %63 = getelementptr inbounds nuw i64, ptr %60, i64 %62
  %64 = load i64, ptr %63, align 8, !tbaa !12
  %65 = load i64, ptr %10, align 8, !tbaa !12
  %66 = icmp eq i64 %64, %65
  br i1 %66, label %67, label %72

67:                                               ; preds = %59
  %68 = load i32, ptr %11, align 4, !tbaa !10
  %69 = load ptr, ptr %8, align 8, !tbaa !91
  %70 = getelementptr inbounds i32, ptr %69, i64 1
  store i32 %68, ptr %70, align 4, !tbaa !10
  %71 = load i32, ptr %11, align 4, !tbaa !10
  call void (ptr, ...) @hwloc_debug(ptr noundef @.str.398, i32 noundef %71)
  br label %76

72:                                               ; preds = %59
  br label %73

73:                                               ; preds = %72
  %74 = load i32, ptr %11, align 4, !tbaa !10
  %75 = add i32 %74, 1
  store i32 %75, ptr %11, align 4, !tbaa !10
  br label %56, !llvm.loop !349

76:                                               ; preds = %67, %56
  %77 = load ptr, ptr %8, align 8, !tbaa !91
  %78 = getelementptr inbounds i32, ptr %77, i64 1
  %79 = load i32, ptr %78, align 4, !tbaa !10
  %80 = icmp ne i32 %79, 0
  br i1 %80, label %82, label %81

81:                                               ; preds = %76
  store i32 -1, ptr %5, align 4
  store i32 1, ptr %12, align 4
  br label %143

82:                                               ; preds = %76
  %83 = load ptr, ptr %7, align 8, !tbaa !336
  %84 = getelementptr inbounds nuw %struct.knl_distances_summary, ptr %83, i32 0, i32 1
  %85 = getelementptr inbounds [4 x %struct.knl_distances_value], ptr %84, i64 0, i64 1
  %86 = getelementptr inbounds nuw %struct.knl_distances_value, ptr %85, i32 0, i32 1
  %87 = load i64, ptr %86, align 8, !tbaa !340
  store i64 %87, ptr %10, align 8, !tbaa !12
  %88 = load ptr, ptr %9, align 8, !tbaa !91
  %89 = getelementptr inbounds i32, ptr %88, i64 1
  store i32 0, ptr %89, align 4, !tbaa !10
  %90 = load ptr, ptr %9, align 8, !tbaa !91
  %91 = getelementptr inbounds i32, ptr %90, i64 0
  store i32 0, ptr %91, align 4, !tbaa !10
  store i32 1, ptr %11, align 4, !tbaa !10
  br label %92

92:                                               ; preds = %128, %82
  %93 = load i32, ptr %11, align 4, !tbaa !10
  %94 = icmp ult i32 %93, 4
  br i1 %94, label %95, label %131

95:                                               ; preds = %92
  %96 = load ptr, ptr %6, align 8, !tbaa !14
  %97 = load i32, ptr %11, align 4, !tbaa !10
  %98 = zext i32 %97 to i64
  %99 = getelementptr inbounds nuw i64, ptr %96, i64 %98
  %100 = load i64, ptr %99, align 8, !tbaa !12
  %101 = load i64, ptr %10, align 8, !tbaa !12
  %102 = icmp eq i64 %100, %101
  br i1 %102, label %103, label %108

103:                                              ; preds = %95
  %104 = load i32, ptr %11, align 4, !tbaa !10
  call void (ptr, ...) @hwloc_debug(ptr noundef @.str.399, i32 noundef %104)
  %105 = load i32, ptr %11, align 4, !tbaa !10
  %106 = load ptr, ptr %9, align 8, !tbaa !91
  %107 = getelementptr inbounds i32, ptr %106, i64 0
  store i32 %105, ptr %107, align 4, !tbaa !10
  br label %127

108:                                              ; preds = %95
  %109 = load ptr, ptr %6, align 8, !tbaa !14
  %110 = load ptr, ptr %8, align 8, !tbaa !91
  %111 = getelementptr inbounds i32, ptr %110, i64 1
  %112 = load i32, ptr %111, align 4, !tbaa !10
  %113 = mul i32 %112, 4
  %114 = load i32, ptr %11, align 4, !tbaa !10
  %115 = add i32 %113, %114
  %116 = zext i32 %115 to i64
  %117 = getelementptr inbounds nuw i64, ptr %109, i64 %116
  %118 = load i64, ptr %117, align 8, !tbaa !12
  %119 = load i64, ptr %10, align 8, !tbaa !12
  %120 = icmp eq i64 %118, %119
  br i1 %120, label %121, label %126

121:                                              ; preds = %108
  %122 = load i32, ptr %11, align 4, !tbaa !10
  call void (ptr, ...) @hwloc_debug(ptr noundef @.str.400, i32 noundef %122)
  %123 = load i32, ptr %11, align 4, !tbaa !10
  %124 = load ptr, ptr %9, align 8, !tbaa !91
  %125 = getelementptr inbounds i32, ptr %124, i64 1
  store i32 %123, ptr %125, align 4, !tbaa !10
  br label %126

126:                                              ; preds = %121, %108
  br label %127

127:                                              ; preds = %126, %103
  br label %128

128:                                              ; preds = %127
  %129 = load i32, ptr %11, align 4, !tbaa !10
  %130 = add i32 %129, 1
  store i32 %130, ptr %11, align 4, !tbaa !10
  br label %92, !llvm.loop !350

131:                                              ; preds = %92
  %132 = load ptr, ptr %9, align 8, !tbaa !91
  %133 = getelementptr inbounds i32, ptr %132, i64 0
  %134 = load i32, ptr %133, align 4, !tbaa !10
  %135 = icmp ne i32 %134, 0
  br i1 %135, label %136, label %141

136:                                              ; preds = %131
  %137 = load ptr, ptr %9, align 8, !tbaa !91
  %138 = getelementptr inbounds i32, ptr %137, i64 1
  %139 = load i32, ptr %138, align 4, !tbaa !10
  %140 = icmp ne i32 %139, 0
  br i1 %140, label %142, label %141

141:                                              ; preds = %136, %131
  store i32 -1, ptr %5, align 4
  store i32 1, ptr %12, align 4
  br label %143

142:                                              ; preds = %136
  store i32 0, ptr %5, align 4
  store i32 1, ptr %12, align 4
  br label %143

143:                                              ; preds = %142, %141, %81, %45
  call void @llvm.lifetime.end.p0(i64 4, ptr %11) #14
  call void @llvm.lifetime.end.p0(i64 8, ptr %10) #14
  %144 = load i32, ptr %5, align 4
  ret i32 %144
}