; Function Attrs: nofree norecurse nosync nounwind memory(argmem: readwrite) uwtable
define internal fastcc range(i32 -1, 1) i32 @hwloc_linux_knl_identify_4nodes(ptr noundef readonly captures(none) %0, ptr noundef nonnull readonly captures(none) %1, ptr noundef nonnull captures(none) %2, ptr noundef nonnull writeonly captures(none) %3) unnamed_addr #22 {
  %5 = load i32, ptr %1, align 8, !tbaa !256
  %.not = icmp eq i32 %5, 4
  br i1 %.not, label %6, label %thread-pre-split.thread

6:                                                ; preds = %4
  %7 = getelementptr inbounds nuw i8, ptr %1, i64 8
  %8 = load i32, ptr %7, align 8, !tbaa !260
  %.not39 = icmp eq i32 %8, 1
  br i1 %.not39, label %9, label %thread-pre-split.thread

9:                                                ; preds = %6
  %10 = getelementptr inbounds nuw i8, ptr %1, i64 24
  %11 = load i32, ptr %10, align 8, !tbaa !260
  %.not40 = icmp eq i32 %11, 2
  br i1 %.not40, label %12, label %thread-pre-split.thread

12:                                               ; preds = %9
  %13 = getelementptr inbounds nuw i8, ptr %1, i64 40
  %14 = load i32, ptr %13, align 8, !tbaa !260
  %.not41 = icmp eq i32 %14, 3
  br i1 %.not41, label %15, label %thread-pre-split.thread

15:                                               ; preds = %12
  %16 = getelementptr inbounds nuw i8, ptr %1, i64 56
  %17 = load i32, ptr %16, align 8, !tbaa !260
  %.not42 = icmp eq i32 %17, 4
  br i1 %.not42, label %18, label %thread-pre-split.thread

18:                                               ; preds = %15
  store i32 0, ptr %2, align 4, !tbaa !3
  %19 = getelementptr inbounds nuw i8, ptr %1, i64 16
  %20 = load i64, ptr %19, align 8, !tbaa !258
  %21 = getelementptr inbounds nuw i8, ptr %2, i64 4
  store i32 0, ptr %21, align 4, !tbaa !3
  br label %22

22:                                               ; preds = %18, %26
  %indvars.iv = phi i64 [ 0, %18 ], [ %indvars.iv.next, %26 ]
  %23 = getelementptr inbounds nuw i64, ptr %0, i64 %indvars.iv
  %24 = load i64, ptr %23, align 8, !tbaa !10
  %25 = icmp eq i64 %24, %20
  br i1 %25, label %thread-pre-split, label %26

26:                                               ; preds = %22
  %indvars.iv.next = add nuw nsw i64 %indvars.iv, 1
  %exitcond.not = icmp eq i64 %indvars.iv.next, 4
  br i1 %exitcond.not, label %thread-pre-split.thread, label %22, !llvm.loop !293

thread-pre-split:                                 ; preds = %22
  %27 = trunc nuw nsw i64 %indvars.iv to i32
  store i32 %27, ptr %21, align 4, !tbaa !3
  %28 = icmp eq i64 %indvars.iv, 0
  br i1 %28, label %thread-pre-split.thread, label %29

29:                                               ; preds = %thread-pre-split
  %30 = getelementptr inbounds nuw i8, ptr %1, i64 32
  %31 = load i64, ptr %30, align 8, !tbaa !258
  %32 = getelementptr inbounds nuw i8, ptr %3, i64 4
  store i32 0, ptr %32, align 4, !tbaa !3
  store i32 0, ptr %3, align 4, !tbaa !3
  br label %33

33:                                               ; preds = %29, %51
  %34 = phi i32 [ 0, %29 ], [ %52, %51 ]
  %35 = phi i32 [ 0, %29 ], [ %53, %51 ]
  %indvars.iv51 = phi i64 [ 1, %29 ], [ %indvars.iv.next52, %51 ]
  %36 = getelementptr inbounds nuw i64, ptr %0, i64 %indvars.iv51
  %37 = load i64, ptr %36, align 8, !tbaa !10
  %38 = icmp eq i64 %37, %31
  br i1 %38, label %39, label %41

39:                                               ; preds = %33
  %40 = trunc nuw nsw i64 %indvars.iv51 to i32
  store i32 %40, ptr %3, align 4, !tbaa !3
  br label %51

41:                                               ; preds = %33
  %42 = load i32, ptr %21, align 4, !tbaa !3
  %43 = shl i32 %42, 2
  %44 = zext i32 %43 to i64
  %45 = getelementptr inbounds nuw i64, ptr %0, i64 %indvars.iv51
  %46 = getelementptr inbounds nuw i64, ptr %45, i64 %44
  %47 = load i64, ptr %46, align 8, !tbaa !10
  %48 = icmp eq i64 %47, %31
  br i1 %48, label %49, label %51

49:                                               ; preds = %41
  %50 = trunc nuw nsw i64 %indvars.iv51 to i32
  store i32 %50, ptr %32, align 4, !tbaa !3
  br label %51

51:                                               ; preds = %39, %49, %41
  %52 = phi i32 [ %34, %39 ], [ %50, %49 ], [ %34, %41 ]
  %53 = phi i32 [ %40, %39 ], [ %35, %49 ], [ %35, %41 ]
  %indvars.iv.next52 = add nuw nsw i64 %indvars.iv51, 1
  %exitcond54.not = icmp eq i64 %indvars.iv.next52, 4
  br i1 %exitcond54.not, label %54, label %33, !llvm.loop !294

54:                                               ; preds = %51
  %.not44 = icmp eq i32 %53, 0
  br i1 %.not44, label %thread-pre-split.thread, label %55

55:                                               ; preds = %54
  %.not45 = icmp eq i32 %52, 0
  %spec.select = sext i1 %.not45 to i32
  br label %thread-pre-split.thread

thread-pre-split.thread:                          ; preds = %26, %55, %54, %thread-pre-split, %4, %6, %9, %12, %15
  %.037 = phi i32 [ -1, %15 ], [ -1, %12 ], [ -1, %9 ], [ -1, %6 ], [ -1, %4 ], [ -1, %thread-pre-split ], [ -1, %54 ], [ %spec.select, %55 ], [ -1, %26 ]
  ret i32 %.037
}